
out/target/product/leo/symbols/system/bin/test64:     file format elf64-littleaarch64


Disassembly of section .plt:

0000000000000530 <__libc_init@plt-0x20>:
 530:	a9bf7bf0 	stp	x16, x30, [sp,#-16]!
 534:	90000090 	adrp	x16, 10000 <main+0xf964>
 538:	f947e211 	ldr	x17, [x16,#4032]
 53c:	913f0210 	add	x16, x16, #0xfc0
 540:	d61f0220 	br	x17
 544:	d503201f 	nop
 548:	d503201f 	nop
 54c:	d503201f 	nop

0000000000000550 <__libc_init@plt>:
 550:	90000090 	adrp	x16, 10000 <main+0xf964>
 554:	f947e611 	ldr	x17, [x16,#4040]
 558:	913f2210 	add	x16, x16, #0xfc8
 55c:	d61f0220 	br	x17

0000000000000560 <__cxa_atexit@plt>:
 560:	90000090 	adrp	x16, 10000 <main+0xf964>
 564:	f947ea11 	ldr	x17, [x16,#4048]
 568:	913f4210 	add	x16, x16, #0xfd0
 56c:	d61f0220 	br	x17

Disassembly of section .text:

0000000000000570 <do_arm64_start>:
 570:	a9bc7bfd 	stp	x29, x30, [sp,#-64]!
 574:	910003fd 	mov	x29, sp
 578:	f9000fa0 	str	x0, [x29,#24]
 57c:	9100a3a0 	add	x0, x29, #0x28
 580:	90000081 	adrp	x1, 10000 <main+0xf964>
 584:	f947fc21 	ldr	x1, [x1,#4088]
 588:	f9000001 	str	x1, [x0]
 58c:	9100a3a0 	add	x0, x29, #0x28
 590:	90000081 	adrp	x1, 10000 <main+0xf964>
 594:	f947f421 	ldr	x1, [x1,#4072]
 598:	f9000401 	str	x1, [x0,#8]
 59c:	9100a3a0 	add	x0, x29, #0x28
 5a0:	90000081 	adrp	x1, 10000 <main+0xf964>
 5a4:	f947f021 	ldr	x1, [x1,#4064]
 5a8:	f9000801 	str	x1, [x0,#16]
 5ac:	90000080 	adrp	x0, 10000 <main+0xf964>
 5b0:	f947f802 	ldr	x2, [x0,#4080]
 5b4:	9100a3a3 	add	x3, x29, #0x28
 5b8:	f9400fa0 	ldr	x0, [x29,#24]
 5bc:	d2800001 	mov	x1, #0x0                   	// #0
 5c0:	97ffffe4 	bl	550 <__libc_init@plt>

00000000000005c4 <_start>:
 5c4:	8b3f63e0 	add	x0, sp, xzr
 5c8:	17ffffea 	b	570 <do_arm64_start>

00000000000005cc <__atexit_handler_wrapper>:
 5cc:	a9be7bfd 	stp	x29, x30, [sp,#-32]!
 5d0:	910003fd 	mov	x29, sp
 5d4:	f9000fa0 	str	x0, [x29,#24]
 5d8:	f9400fa0 	ldr	x0, [x29,#24]
 5dc:	eb1f001f 	cmp	x0, xzr
 5e0:	54000060 	b.eq	5ec <__atexit_handler_wrapper+0x20>
 5e4:	f9400fa0 	ldr	x0, [x29,#24]
 5e8:	d63f0000 	blr	x0
 5ec:	a8c27bfd 	ldp	x29, x30, [sp],#32
 5f0:	d65f03c0 	ret

00000000000005f4 <atexit>:
 5f4:	a9be7bfd 	stp	x29, x30, [sp,#-32]!
 5f8:	910003fd 	mov	x29, sp
 5fc:	f9000fa0 	str	x0, [x29,#24]
 600:	90000000 	adrp	x0, 0 <__libc_init@plt-0x550>
 604:	91173001 	add	x1, x0, #0x5cc
 608:	b0000080 	adrp	x0, 11000 <__dso_handle>
 60c:	91000002 	add	x2, x0, #0x0
 610:	aa0103e0 	mov	x0, x1
 614:	f9400fa1 	ldr	x1, [x29,#24]
 618:	97ffffd2 	bl	560 <__cxa_atexit@plt>
 61c:	d503201f 	nop
 620:	a8c27bfd 	ldp	x29, x30, [sp],#32
 624:	d65f03c0 	ret

0000000000000628 <func2>:
 628:	d10083ff 	sub	sp, sp, #0x20
 62c:	b9000fe0 	str	w0, [sp,#12]
 630:	b9000be1 	str	w1, [sp,#8]
 634:	b90007e2 	str	w2, [sp,#4]
 638:	b9001fff 	str	wzr, [sp,#28]
 63c:	b9400fe1 	ldr	w1, [sp,#12]
 640:	b9400be0 	ldr	w0, [sp,#8]
 644:	0b000021 	add	w1, w1, w0
 648:	b94007e0 	ldr	w0, [sp,#4]
 64c:	0b000020 	add	w0, w1, w0
 650:	b9001fe0 	str	w0, [sp,#28]
 654:	b9401fe0 	ldr	w0, [sp,#28]
 658:	910083ff 	add	sp, sp, #0x20
 65c:	d65f03c0 	ret

0000000000000660 <func1>:
 660:	a9bd7bfd 	stp	x29, x30, [sp,#-48]!
 664:	910003fd 	mov	x29, sp
 668:	b9001fa0 	str	w0, [x29,#28]
 66c:	b9001ba1 	str	w1, [x29,#24]
 670:	52800060 	mov	w0, #0x3                   	// #3
 674:	b9002ba0 	str	w0, [x29,#40]
 678:	b9002fbf 	str	wzr, [x29,#44]
 67c:	b9401fa0 	ldr	w0, [x29,#28]
 680:	b9401ba1 	ldr	w1, [x29,#24]
 684:	b9402ba2 	ldr	w2, [x29,#40]
 688:	97ffffe8 	bl	628 <func2>
 68c:	b9002fa0 	str	w0, [x29,#44]
 690:	b9402fa0 	ldr	w0, [x29,#44]
 694:	a8c37bfd 	ldp	x29, x30, [sp],#48
 698:	d65f03c0 	ret

000000000000069c <main>:
 69c:	a9bd7bfd 	stp	x29, x30, [sp,#-48]!
 6a0:	910003fd 	mov	x29, sp
 6a4:	b9001fa0 	str	w0, [x29,#28]
 6a8:	f9000ba1 	str	x1, [x29,#16]
 6ac:	52800020 	mov	w0, #0x1                   	// #1
 6b0:	b90027a0 	str	w0, [x29,#36]
 6b4:	52800040 	mov	w0, #0x2                   	// #2
 6b8:	b9002ba0 	str	w0, [x29,#40]
 6bc:	b9002fbf 	str	wzr, [x29,#44]
 6c0:	b94027a0 	ldr	w0, [x29,#36]
 6c4:	b9402ba1 	ldr	w1, [x29,#40]
 6c8:	97ffffe6 	bl	660 <func1>
 6cc:	b9002fa0 	str	w0, [x29,#44]
 6d0:	52800000 	mov	w0, #0x0                   	// #0
 6d4:	a8c37bfd 	ldp	x29, x30, [sp],#48
 6d8:	d65f03c0 	ret
