
a.out:     file format elf32-littlearm


Disassembly of section .init:

0000836c <_init>:
    836c:	e92d4008 	push	{r3, lr}
    8370:	eb00001d 	bl	83ec <call_weak_fn>
    8374:	e8bd8008 	pop	{r3, pc}

Disassembly of section .plt:

00008378 <.plt>:
    8378:	e52de004 	push	{lr}		; (str lr, [sp, #-4]!)
    837c:	e59fe004 	ldr	lr, [pc, #4]	; 8388 <_init+0x1c>
    8380:	e08fe00e 	add	lr, pc, lr
    8384:	e5bef008 	ldr	pc, [lr, #8]!
    8388:	000083b0 			; <UNDEFINED> instruction: 0x000083b0
    838c:	e28fc600 	add	ip, pc, #0, 12
    8390:	e28cca08 	add	ip, ip, #8, 20	; 0x8000
    8394:	e5bcf3b0 	ldr	pc, [ip, #944]!	; 0x3b0
    8398:	e28fc600 	add	ip, pc, #0, 12
    839c:	e28cca08 	add	ip, ip, #8, 20	; 0x8000
    83a0:	e5bcf3a8 	ldr	pc, [ip, #936]!	; 0x3a8
    83a4:	e28fc600 	add	ip, pc, #0, 12
    83a8:	e28cca08 	add	ip, ip, #8, 20	; 0x8000
    83ac:	e5bcf3a0 	ldr	pc, [ip, #928]!	; 0x3a0

Disassembly of section .text:

000083b0 <_start>:
    83b0:	e3a0b000 	mov	fp, #0
    83b4:	e3a0e000 	mov	lr, #0
    83b8:	e49d1004 	pop	{r1}		; (ldr r1, [sp], #4)
    83bc:	e1a0200d 	mov	r2, sp
    83c0:	e52d2004 	push	{r2}		; (str r2, [sp, #-4]!)
    83c4:	e52d0004 	push	{r0}		; (str r0, [sp, #-4]!)
    83c8:	e59fc010 	ldr	ip, [pc, #16]	; 83e0 <_start+0x30>
    83cc:	e52dc004 	push	{ip}		; (str ip, [sp, #-4]!)
    83d0:	e59f000c 	ldr	r0, [pc, #12]	; 83e4 <_start+0x34>
    83d4:	e59f300c 	ldr	r3, [pc, #12]	; 83e8 <_start+0x38>
    83d8:	ebffffeb 	bl	838c <_init+0x20>
    83dc:	ebfffff0 	bl	83a4 <_init+0x38>
    83e0:	0000859c 	muleq	r0, ip, r5
    83e4:	00008500 	andeq	r8, r0, r0, lsl #10
    83e8:	00008538 	andeq	r8, r0, r8, lsr r5

000083ec <call_weak_fn>:
    83ec:	e59f3014 	ldr	r3, [pc, #20]	; 8408 <call_weak_fn+0x1c>
    83f0:	e59f2014 	ldr	r2, [pc, #20]	; 840c <call_weak_fn+0x20>
    83f4:	e08f3003 	add	r3, pc, r3
    83f8:	e7932002 	ldr	r2, [r3, r2]
    83fc:	e3520000 	cmp	r2, #0
    8400:	012fff1e 	bxeq	lr
    8404:	eaffffe3 	b	8398 <_init+0x2c>
    8408:	0000833c 	andeq	r8, r0, ip, lsr r3
    840c:	00000018 	andeq	r0, r0, r8, lsl r0

00008410 <deregister_tm_clones>:
    8410:	e92d4008 	push	{r3, lr}
    8414:	e59f0020 	ldr	r0, [pc, #32]	; 843c <deregister_tm_clones+0x2c>
    8418:	e59f3020 	ldr	r3, [pc, #32]	; 8440 <deregister_tm_clones+0x30>
    841c:	e0603003 	rsb	r3, r0, r3
    8420:	e3530006 	cmp	r3, #6
    8424:	98bd8008 	popls	{r3, pc}
    8428:	e59f3014 	ldr	r3, [pc, #20]	; 8444 <deregister_tm_clones+0x34>
    842c:	e3530000 	cmp	r3, #0
    8430:	08bd8008 	popeq	{r3, pc}
    8434:	e12fff33 	blx	r3
    8438:	e8bd8008 	pop	{r3, pc}
    843c:	0001075c 	andeq	r0, r1, ip, asr r7
    8440:	0001075f 	andeq	r0, r1, pc, asr r7
    8444:	00000000 	andeq	r0, r0, r0

00008448 <register_tm_clones>:
    8448:	e92d4008 	push	{r3, lr}
    844c:	e59f0028 	ldr	r0, [pc, #40]	; 847c <register_tm_clones+0x34>
    8450:	e59f3028 	ldr	r3, [pc, #40]	; 8480 <register_tm_clones+0x38>
    8454:	e0603003 	rsb	r3, r0, r3
    8458:	e1a03143 	asr	r3, r3, #2
    845c:	e0833fa3 	add	r3, r3, r3, lsr #31
    8460:	e1b010c3 	asrs	r1, r3, #1
    8464:	08bd8008 	popeq	{r3, pc}
    8468:	e59f2014 	ldr	r2, [pc, #20]	; 8484 <register_tm_clones+0x3c>
    846c:	e3520000 	cmp	r2, #0
    8470:	08bd8008 	popeq	{r3, pc}
    8474:	e12fff32 	blx	r2
    8478:	e8bd8008 	pop	{r3, pc}
    847c:	0001075c 	andeq	r0, r1, ip, asr r7
    8480:	0001075c 	andeq	r0, r1, ip, asr r7
    8484:	00000000 	andeq	r0, r0, r0

00008488 <__do_global_dtors_aux>:
    8488:	e92d4010 	push	{r4, lr}
    848c:	e59f4018 	ldr	r4, [pc, #24]	; 84ac <__do_global_dtors_aux+0x24>
    8490:	e5d43000 	ldrb	r3, [r4]
    8494:	e3530000 	cmp	r3, #0
    8498:	18bd8010 	popne	{r4, pc}
    849c:	ebffffdb 	bl	8410 <deregister_tm_clones>
    84a0:	e3a03001 	mov	r3, #1
    84a4:	e5c43000 	strb	r3, [r4]
    84a8:	e8bd8010 	pop	{r4, pc}
    84ac:	0001075c 	andeq	r0, r1, ip, asr r7

000084b0 <frame_dummy>:
    84b0:	e59f0024 	ldr	r0, [pc, #36]	; 84dc <frame_dummy+0x2c>
    84b4:	e92d4008 	push	{r3, lr}
    84b8:	e5903000 	ldr	r3, [r0]
    84bc:	e3530000 	cmp	r3, #0
    84c0:	0a000003 	beq	84d4 <frame_dummy+0x24>
    84c4:	e59f3014 	ldr	r3, [pc, #20]	; 84e0 <frame_dummy+0x30>
    84c8:	e3530000 	cmp	r3, #0
    84cc:	0a000000 	beq	84d4 <frame_dummy+0x24>
    84d0:	e12fff33 	blx	r3
    84d4:	e8bd4008 	pop	{r3, lr}
    84d8:	eaffffda 	b	8448 <register_tm_clones>
    84dc:	00010644 	andeq	r0, r1, r4, asr #12
    84e0:	00000000 	andeq	r0, r0, r0

000084e4 <test>:
    84e4:	e52db004 	push	{fp}		; (str fp, [sp, #-4]!)
    84e8:	e28db000 	add	fp, sp, #0
    84ec:	e3a03006 	mov	r3, #6
    84f0:	e1a00003 	mov	r0, r3
    84f4:	e28bd000 	add	sp, fp, #0
    84f8:	e8bd0800 	ldmfd	sp!, {fp}
    84fc:	e12fff1e 	bx	lr

00008500 <main>:
    8500:	e92d4800 	push	{fp, lr}
    8504:	e28db004 	add	fp, sp, #4
    8508:	e24dd008 	sub	sp, sp, #8
    850c:	e50b0008 	str	r0, [fp, #-8]
    8510:	e50b100c 	str	r1, [fp, #-12]

    8514:	ebfffff2 	bl	84e4 <test>
    8518:	e1a02000 	mov	r2, r0
    851c:	e59f3010 	ldr	r3, [pc, #16]	; 8534 <main+0x34>
    8520:	e5832000 	str	r2, [r3]


    8524:	e3a03000 	mov	r3, #0
    8528:	e1a00003 	mov	r0, r3
    852c:	e24bd004 	sub	sp, fp, #4
    8530:	e8bd8800 	pop	{fp, pc}
    8534:	00010760 	andeq	r0, r1, r0, ror #14

00008538 <__libc_csu_init>:
    8538:	e92d45f8 	push	{r3, r4, r5, r6, r7, r8, sl, lr}
    853c:	e59f5050 	ldr	r5, [pc, #80]	; 8594 <__libc_csu_init+0x5c>
    8540:	e59f6050 	ldr	r6, [pc, #80]	; 8598 <__libc_csu_init+0x60>
    8544:	e08f5005 	add	r5, pc, r5
    8548:	e08f6006 	add	r6, pc, r6
    854c:	e0656006 	rsb	r6, r5, r6
    8550:	e1a07000 	mov	r7, r0
    8554:	e1a08001 	mov	r8, r1
    8558:	e1a0a002 	mov	sl, r2
    855c:	ebffff82 	bl	836c <_init>
    8560:	e1b06146 	asrs	r6, r6, #2
    8564:	08bd85f8 	popeq	{r3, r4, r5, r6, r7, r8, sl, pc}
    8568:	e2455004 	sub	r5, r5, #4
    856c:	e3a04000 	mov	r4, #0
    8570:	e5b53004 	ldr	r3, [r5, #4]!
    8574:	e1a00007 	mov	r0, r7
    8578:	e1a01008 	mov	r1, r8
    857c:	e1a0200a 	mov	r2, sl
    8580:	e2844001 	add	r4, r4, #1
    8584:	e12fff33 	blx	r3
    8588:	e1540006 	cmp	r4, r6
    858c:	1afffff7 	bne	8570 <__libc_csu_init+0x38>
    8590:	e8bd85f8 	pop	{r3, r4, r5, r6, r7, r8, sl, pc}
    8594:	000080f0 	strdeq	r8, [r0], -r0
    8598:	000080f0 	strdeq	r8, [r0], -r0

0000859c <__libc_csu_fini>:
    859c:	e12fff1e 	bx	lr

Disassembly of section .fini:

000085a0 <_fini>:
    85a0:	e92d4008 	push	{r3, lr}
    85a4:	e8bd8008 	pop	{r3, pc}
