
out/target/product/leo/symbols/system/bin/test32:     file format elf32-littlearm


Disassembly of section .plt:

00000280 <__libc_init@plt-0x14>:
 280:	e52de004 	push	{lr}		; (str lr, [sp, #-4]!)
 284:	e59fe004 	ldr	lr, [pc, #4]	; 290 <__libc_init@plt-0x4>
 288:	e08fe00e 	add	lr, pc, lr
 28c:	e5bef008 	ldr	pc, [lr, #8]!
 290:	00001d5c 	andeq	r1, r0, ip, asr sp

00000294 <__libc_init@plt>:
 294:	e28fc600 	add	ip, pc, #0, 12
 298:	e28cca01 	add	ip, ip, #4096	; 0x1000
 29c:	e5bcfd5c 	ldr	pc, [ip, #3420]!	; 0xd5c

000002a0 <__cxa_atexit@plt>:
 2a0:	e28fc600 	add	ip, pc, #0, 12
 2a4:	e28cca01 	add	ip, ip, #4096	; 0x1000
 2a8:	e5bcfd54 	ldr	pc, [ip, #3412]!	; 0xd54

Disassembly of section .text:

000002ac <_start>:
 2ac:	e92d4800 	push	{fp, lr}
 2b0:	e28db004 	add	fp, sp, #4
 2b4:	e24dd010 	sub	sp, sp, #16
 2b8:	e59f3050 	ldr	r3, [pc, #80]	; 310 <_start+0x64>
 2bc:	e08f3003 	add	r3, pc, r3
 2c0:	e59f204c 	ldr	r2, [pc, #76]	; 314 <_start+0x68>
 2c4:	e7932002 	ldr	r2, [r3, r2]
 2c8:	e50b2014 	str	r2, [fp, #-20]	; 0xffffffec
 2cc:	e59f2044 	ldr	r2, [pc, #68]	; 318 <_start+0x6c>
 2d0:	e7932002 	ldr	r2, [r3, r2]
 2d4:	e50b2010 	str	r2, [fp, #-16]
 2d8:	e59f203c 	ldr	r2, [pc, #60]	; 31c <_start+0x70>
 2dc:	e7932002 	ldr	r2, [r3, r2]
 2e0:	e50b200c 	str	r2, [fp, #-12]
 2e4:	e1a0200b 	mov	r2, fp
 2e8:	e2822004 	add	r2, r2, #4
 2ec:	e50b2008 	str	r2, [fp, #-8]
 2f0:	e24bc014 	sub	ip, fp, #20
 2f4:	e51b0008 	ldr	r0, [fp, #-8]
 2f8:	e3a01000 	mov	r1, #0
 2fc:	e59f201c 	ldr	r2, [pc, #28]	; 320 <_start+0x74>
 300:	e7933002 	ldr	r3, [r3, r2]
 304:	e1a02003 	mov	r2, r3
 308:	e1a0300c 	mov	r3, ip
 30c:	ebffffe0 	bl	294 <__libc_init@plt>
 310:	00001d28 	andeq	r1, r0, r8, lsr #26
 314:	fffffff0 			; <UNDEFINED> instruction: 0xfffffff0
 318:	fffffff4 			; <UNDEFINED> instruction: 0xfffffff4
 31c:	fffffff8 			; <UNDEFINED> instruction: 0xfffffff8
 320:	fffffffc 			; <UNDEFINED> instruction: 0xfffffffc

00000324 <__atexit_handler_wrapper>:
 324:	e92d4800 	push	{fp, lr}
 328:	e28db004 	add	fp, sp, #4
 32c:	e24dd008 	sub	sp, sp, #8
 330:	e50b0008 	str	r0, [fp, #-8]
 334:	e51b3008 	ldr	r3, [fp, #-8]
 338:	e3530000 	cmp	r3, #0
 33c:	0a000001 	beq	348 <__atexit_handler_wrapper+0x24>
 340:	e51b3008 	ldr	r3, [fp, #-8]
 344:	e12fff33 	blx	r3
 348:	e24bd004 	sub	sp, fp, #4
 34c:	e8bd8800 	pop	{fp, pc}

00000350 <atexit>:
 350:	e92d4800 	push	{fp, lr}
 354:	e28db004 	add	fp, sp, #4
 358:	e24dd008 	sub	sp, sp, #8
 35c:	e50b0008 	str	r0, [fp, #-8]
 360:	e59f3028 	ldr	r3, [pc, #40]	; 390 <atexit+0x40>
 364:	e08f3003 	add	r3, pc, r3
 368:	e1a00003 	mov	r0, r3
 36c:	e51b1008 	ldr	r1, [fp, #-8]
 370:	e59f301c 	ldr	r3, [pc, #28]	; 394 <atexit+0x44>
 374:	e08f3003 	add	r3, pc, r3
 378:	e1a02003 	mov	r2, r3
 37c:	ebffffc7 	bl	2a0 <__cxa_atexit@plt>
 380:	e1a03000 	mov	r3, r0
 384:	e1a00003 	mov	r0, r3
 388:	e24bd004 	sub	sp, fp, #4
 38c:	e8bd8800 	pop	{fp, pc}
 390:	ffffffb8 			; <UNDEFINED> instruction: 0xffffffb8
 394:	00001c84 	andeq	r1, r0, r4, lsl #25

00000398 <func2>:
 398:	b086      	sub	sp, #24
 39a:	9003      	str	r0, [sp, #12]
 39c:	9102      	str	r1, [sp, #8]
 39e:	9201      	str	r2, [sp, #4]
 3a0:	2300      	movs	r3, #0
 3a2:	9305      	str	r3, [sp, #20]
 3a4:	9a03      	ldr	r2, [sp, #12]
 3a6:	9b02      	ldr	r3, [sp, #8]
 3a8:	441a      	add	r2, r3
 3aa:	9b01      	ldr	r3, [sp, #4]
 3ac:	4413      	add	r3, r2
 3ae:	9305      	str	r3, [sp, #20]
 3b0:	9b05      	ldr	r3, [sp, #20]
 3b2:	4618      	mov	r0, r3
 3b4:	b006      	add	sp, #24
 3b6:	4770      	bx	lr

000003b8 <func1>:
 3b8:	b500      	push	{lr}
 3ba:	b085      	sub	sp, #20
 3bc:	9001      	str	r0, [sp, #4]
 3be:	9100      	str	r1, [sp, #0]
 3c0:	2303      	movs	r3, #3
 3c2:	9302      	str	r3, [sp, #8]
 3c4:	2300      	movs	r3, #0
 3c6:	9303      	str	r3, [sp, #12]
 3c8:	9801      	ldr	r0, [sp, #4]
 3ca:	9900      	ldr	r1, [sp, #0]
 3cc:	9a02      	ldr	r2, [sp, #8]
 3ce:	f7ff ffe3 	bl	398 <func2>
 3d2:	9003      	str	r0, [sp, #12]
 3d4:	9b03      	ldr	r3, [sp, #12]
 3d6:	4618      	mov	r0, r3
 3d8:	b005      	add	sp, #20
 3da:	f85d fb04 	ldr.w	pc, [sp], #4
 3de:	bf00      	nop

000003e0 <main>:
 3e0:	b500      	push	{lr}
 3e2:	b087      	sub	sp, #28
 3e4:	9001      	str	r0, [sp, #4]
 3e6:	9100      	str	r1, [sp, #0]
 3e8:	2301      	movs	r3, #1
 3ea:	9303      	str	r3, [sp, #12]
 3ec:	2302      	movs	r3, #2
 3ee:	9304      	str	r3, [sp, #16]
 3f0:	2300      	movs	r3, #0
 3f2:	9305      	str	r3, [sp, #20]
 3f4:	9803      	ldr	r0, [sp, #12]
 3f6:	9904      	ldr	r1, [sp, #16]
 3f8:	f7ff ffde 	bl	3b8 <func1>
 3fc:	9005      	str	r0, [sp, #20]
 3fe:	2300      	movs	r3, #0
 400:	4618      	mov	r0, r3
 402:	b007      	add	sp, #28
 404:	f85d fb04 	ldr.w	pc, [sp], #4
